; Function Attrs: mustprogress nounwind uwtable
define dso_local void @_ZN4pbrt19ParameterDictionary14FreeParametersEv(ptr noundef nonnull align 8 captures(none) dereferenceable(108) %0) local_unnamed_addr #3 align 2 {
  %2 = getelementptr inbounds nuw i8, ptr %0, i64 104
  %3 = load i32, ptr %2, align 8, !tbaa !25
  %4 = icmp sgt i32 %3, 0
  br i1 %4, label %.lr.ph, label %._crit_edge

.lr.ph:                                           ; preds = %1
  %5 = getelementptr inbounds nuw i8, ptr %0, i64 8
  %6 = getelementptr inbounds nuw i8, ptr %0, i64 16
  br label %8

._crit_edge:                                      ; preds = %16, %1
  %7 = getelementptr inbounds nuw i8, ptr %0, i64 88
  store i64 0, ptr %7, align 8, !tbaa !15
  ret void

8:                                                ; preds = %.lr.ph, %16
  %9 = phi i32 [ %3, %.lr.ph ], [ %17, %16 ]
  %indvars.iv = phi i64 [ 0, %.lr.ph ], [ %indvars.iv.next, %16 ]
  %10 = load ptr, ptr %5, align 8, !tbaa !9
  %.not.i.i = icmp eq ptr %10, null
  %11 = select i1 %.not.i.i, ptr %6, ptr %10
  %12 = getelementptr inbounds nuw ptr, ptr %11, i64 %indvars.iv
  %13 = load ptr, ptr %12, align 8, !tbaa !17
  %14 = icmp eq ptr %13, null
  br i1 %14, label %16, label %15

15:                                               ; preds = %8
  tail call void @_ZN4pbrt15ParsedParameterD2Ev(ptr noundef nonnull align 8 dereferenceable(233) %13) #29
  tail call void @_ZdlPvm(ptr noundef nonnull %13, i64 noundef 240) #30
  %.pre = load i32, ptr %2, align 8, !tbaa !25
  br label %16

16:                                               ; preds = %8, %15
  %17 = phi i32 [ %9, %8 ], [ %.pre, %15 ]
  %indvars.iv.next = add nuw nsw i64 %indvars.iv, 1
  %18 = sext i32 %17 to i64
  %19 = icmp slt i64 %indvars.iv.next, %18
  br i1 %19, label %8, label %._crit_edge, !llvm.loop !76
}